target datalayout = "e-m:e-p270:32:32-p271:32:32-p272:64:64-i64:64-i128:128-f80:128-n8:16:32:64-S128"
target triple = "x86_64-pc-linux-gnu"

@.str = private unnamed_addr constant [29 x i8] c"%s:%u: failed assertion \22%s\22\00", align 1
@.str.1 = private unnamed_addr constant [14 x i8] c"epan/tvbuff.c\00", align 1
@.str.26 = private unnamed_addr constant [8 x i8] c"len > 0\00", align 1

; Function Attrs: null_pointer_is_valid sspstrong uwtable
define ptr @tvb_bytes_to_str_punct(ptr noundef %0, ptr noundef %1, i32 noundef %2, i32 noundef %3, i8 noundef signext %4) #0 {
  %6 = alloca ptr, align 8
  %7 = alloca ptr, align 8
  %8 = alloca i32, align 4
  %9 = alloca i32, align 4
  %10 = alloca i8, align 1
  store ptr %0, ptr %6, align 8
  store ptr %1, ptr %7, align 8
  store i32 %2, ptr %8, align 4
  store i32 %3, ptr %9, align 4
  store i8 %4, ptr %10, align 1
  %11 = load i32, ptr %9, align 4
  %12 = icmp sgt i32 %11, 0
  br i1 %12, label %13, label %14

13:                                               ; preds = %5
  br label %16

14:                                               ; preds = %5
  call void (ptr, ...) @proto_report_dissector_bug(ptr noundef @.str, ptr noundef @.str.1, i32 noundef 4603, ptr noundef @.str.26) #18
  unreachable

15:                                               ; No predecessors!
  br label %16

16:                                               ; preds = %15, %13
  %17 = load ptr, ptr %6, align 8
  %18 = load ptr, ptr %7, align 8
  %19 = load i32, ptr %8, align 4
  %20 = load i32, ptr %9, align 4
  %21 = call ptr @ensure_contiguous(ptr noundef %18, i32 noundef %19, i32 noundef %20)
  %22 = load i32, ptr %9, align 4
  %23 = sext i32 %22 to i64
  %24 = load i8, ptr %10, align 1
  %25 = call ptr @bytes_to_str_punct_maxlen(ptr noundef %17, ptr noundef %21, i64 noundef %23, i8 noundef signext %24, i64 noundef 24)
  ret ptr %25
}