; Function Attrs: null_pointer_is_valid sspstrong uwtable
define ptr @tvb_bytes_to_str_punct(ptr noundef %0, ptr noundef %1, i32 noundef %2, i32 noundef %3, i8 noundef signext %4) local_unnamed_addr #0 {
  %6 = icmp sgt i32 %3, 0
  br i1 %6, label %8, label %7

7:                                                ; preds = %5
  tail call void (ptr, ...) @proto_report_dissector_bug(ptr noundef nonnull @.str, ptr noundef nonnull @.str.1, i32 noundef 4603, ptr noundef nonnull @.str.26) #18
  unreachable

8:                                                ; preds = %5
  %9 = tail call fastcc ptr @ensure_contiguous(ptr noundef %1, i32 noundef %2, i32 noundef %3)
  %10 = zext nneg i32 %3 to i64
  %11 = tail call ptr @bytes_to_str_punct_maxlen(ptr noundef %0, ptr noundef %9, i64 noundef %10, i8 noundef signext %4, i64 noundef 24)
  ret ptr %11
}